target datalayout = "e-m:e-p270:32:32-p271:32:32-p272:64:64-i64:64-i128:128-f80:128-n8:16:32:64-S128"
target triple = "x86_64-pc-linux-gnu"

%struct.prov_siv_ctx_st = type { i32, i8, i64, i64, %struct.siv128_context, ptr, ptr, ptr, ptr }
%struct.siv128_context = type { %union.siv_block_u, %union.siv_block_u, ptr, ptr, ptr, i32, i32 }
%union.siv_block_u = type { [2 x i64] }

; Function Attrs: nounwind uwtable
define internal i32 @aes_siv_dupctx(ptr noundef %0, ptr noundef %1) #0 {
  %3 = alloca i32, align 4
  %4 = alloca ptr, align 8
  %5 = alloca ptr, align 8
  %6 = alloca ptr, align 8
  %7 = alloca ptr, align 8
  %8 = alloca i32, align 4
  store ptr %0, ptr %4, align 8, !tbaa !7
  store ptr %1, ptr %5, align 8, !tbaa !7
  call void @llvm.lifetime.start.p0(i64 8, ptr %6) #4
  %9 = load ptr, ptr %4, align 8, !tbaa !7
  store ptr %9, ptr %6, align 8, !tbaa !11
  call void @llvm.lifetime.start.p0(i64 8, ptr %7) #4
  %10 = load ptr, ptr %5, align 8, !tbaa !7
  store ptr %10, ptr %7, align 8, !tbaa !11
  %11 = load ptr, ptr %7, align 8, !tbaa !11
  %12 = load ptr, ptr %6, align 8, !tbaa !11
  call void @llvm.memcpy.p0.p0.i64(ptr align 8 %11, ptr align 8 %12, i64 120, i1 false), !tbaa.struct !29
  %13 = load ptr, ptr %7, align 8, !tbaa !11
  %14 = getelementptr inbounds nuw %struct.prov_siv_ctx_st, ptr %13, i32 0, i32 4
  %15 = getelementptr inbounds nuw %struct.siv128_context, ptr %14, i32 0, i32 2
  store ptr null, ptr %15, align 8, !tbaa !36
  %16 = load ptr, ptr %7, align 8, !tbaa !11
  %17 = getelementptr inbounds nuw %struct.prov_siv_ctx_st, ptr %16, i32 0, i32 4
  %18 = getelementptr inbounds nuw %struct.siv128_context, ptr %17, i32 0, i32 4
  store ptr null, ptr %18, align 8, !tbaa !37
  %19 = load ptr, ptr %7, align 8, !tbaa !11
  %20 = getelementptr inbounds nuw %struct.prov_siv_ctx_st, ptr %19, i32 0, i32 4
  %21 = getelementptr inbounds nuw %struct.siv128_context, ptr %20, i32 0, i32 3
  store ptr null, ptr %21, align 8, !tbaa !38
  %22 = load ptr, ptr %7, align 8, !tbaa !11
  %23 = getelementptr inbounds nuw %struct.prov_siv_ctx_st, ptr %22, i32 0, i32 4
  %24 = load ptr, ptr %6, align 8, !tbaa !11
  %25 = getelementptr inbounds nuw %struct.prov_siv_ctx_st, ptr %24, i32 0, i32 4
  %26 = call i32 @ossl_siv128_copy_ctx(ptr noundef %23, ptr noundef %25)
  %27 = icmp ne i32 %26, 0
  br i1 %27, label %29, label %28

28:                                               ; preds = %2
  store i32 0, ptr %3, align 4
  store i32 1, ptr %8, align 4
  br label %50

29:                                               ; preds = %2
  %30 = load ptr, ptr %7, align 8, !tbaa !11
  %31 = getelementptr inbounds nuw %struct.prov_siv_ctx_st, ptr %30, i32 0, i32 6
  %32 = load ptr, ptr %31, align 8, !tbaa !26
  %33 = icmp ne ptr %32, null
  br i1 %33, label %34, label %39

34:                                               ; preds = %29
  %35 = load ptr, ptr %7, align 8, !tbaa !11
  %36 = getelementptr inbounds nuw %struct.prov_siv_ctx_st, ptr %35, i32 0, i32 6
  %37 = load ptr, ptr %36, align 8, !tbaa !26
  %38 = call i32 @EVP_CIPHER_up_ref(ptr noundef %37)
  br label %39

39:                                               ; preds = %34, %29
  %40 = load ptr, ptr %7, align 8, !tbaa !11
  %41 = getelementptr inbounds nuw %struct.prov_siv_ctx_st, ptr %40, i32 0, i32 5
  %42 = load ptr, ptr %41, align 8, !tbaa !27
  %43 = icmp ne ptr %42, null
  br i1 %43, label %44, label %49

44:                                               ; preds = %39
  %45 = load ptr, ptr %7, align 8, !tbaa !11
  %46 = getelementptr inbounds nuw %struct.prov_siv_ctx_st, ptr %45, i32 0, i32 5
  %47 = load ptr, ptr %46, align 8, !tbaa !27
  %48 = call i32 @EVP_CIPHER_up_ref(ptr noundef %47)
  br label %49

49:                                               ; preds = %44, %39
  store i32 1, ptr %3, align 4
  store i32 1, ptr %8, align 4
  br label %50

50:                                               ; preds = %49, %28
  call void @llvm.lifetime.end.p0(i64 8, ptr %7) #4
  call void @llvm.lifetime.end.p0(i64 8, ptr %6) #4
  %51 = load i32, ptr %3, align 4
  ret i32 %51
}