; Function Attrs: nounwind uwtable
define internal range(i32 0, 2) i32 @aes_siv_dupctx(ptr noundef %0, ptr noundef initializes((0, 120)) %1) #1 {
  tail call void @llvm.memcpy.p0.p0.i64(ptr noundef nonnull align 8 dereferenceable(120) %1, ptr noundef nonnull align 8 dereferenceable(120) %0, i64 120, i1 false), !tbaa.struct !19
  %3 = getelementptr inbounds nuw i8, ptr %1, i64 24
  %4 = getelementptr inbounds nuw i8, ptr %1, i64 56
  %5 = getelementptr inbounds nuw i8, ptr %0, i64 24
  tail call void @llvm.memset.p0.i64(ptr noundef nonnull align 8 dereferenceable(24) %4, i8 0, i64 24, i1 false)
  %6 = tail call i32 @ossl_siv128_copy_ctx(ptr noundef nonnull %3, ptr noundef nonnull %5) #5
  %.not = icmp eq i32 %6, 0
  br i1 %.not, label %17, label %7

7:                                                ; preds = %2
  %8 = getelementptr inbounds nuw i8, ptr %1, i64 96
  %9 = load ptr, ptr %8, align 8, !tbaa !17
  %.not15 = icmp eq ptr %9, null
  br i1 %.not15, label %12, label %10

10:                                               ; preds = %7
  %11 = tail call i32 @EVP_CIPHER_up_ref(ptr noundef nonnull %9) #5
  br label %12

12:                                               ; preds = %10, %7
  %13 = getelementptr inbounds nuw i8, ptr %1, i64 88
  %14 = load ptr, ptr %13, align 8, !tbaa !18
  %.not16 = icmp eq ptr %14, null
  br i1 %.not16, label %17, label %15

15:                                               ; preds = %12
  %16 = tail call i32 @EVP_CIPHER_up_ref(ptr noundef nonnull %14) #5
  br label %17

17:                                               ; preds = %12, %15, %2
  %.0 = phi i32 [ 0, %2 ], [ 1, %15 ], [ 1, %12 ]
  ret i32 %.0
}